   1               		.file	"RHDatagram.cpp"
   2               	__SP_H__ = 0x3e
   3               	__SP_L__ = 0x3d
   4               	__SREG__ = 0x3f
   5               	__tmp_reg__ = 0
   6               	__zero_reg__ = 1
   7               		.text
   8               	.Ltext0:
   9               		.cfi_sections	.debug_frame
  10               		.section	.text._ZN10RHDatagramC2ER15RHGenericDriverh,"ax",@progbits
  11               	.global	_ZN10RHDatagramC2ER15RHGenericDriverh
  13               	_ZN10RHDatagramC2ER15RHGenericDriverh:
  14               	.LFB56:
  15               		.file 1 "../RadioHead/RHDatagram.cpp"
   1:../RadioHead/RHDatagram.cpp **** // RHDatagram.cpp
   2:../RadioHead/RHDatagram.cpp **** //
   3:../RadioHead/RHDatagram.cpp **** // Copyright (C) 2011 Mike McCauley
   4:../RadioHead/RHDatagram.cpp **** // $Id: RHDatagram.cpp,v 1.6 2014/05/23 02:20:17 mikem Exp $
   5:../RadioHead/RHDatagram.cpp **** 
   6:../RadioHead/RHDatagram.cpp **** #include <RHDatagram.h>
   7:../RadioHead/RHDatagram.cpp **** 
   8:../RadioHead/RHDatagram.cpp **** RHDatagram::RHDatagram(RHGenericDriver& driver, uint8_t thisAddress) 
  16               		.loc 1 8 0
  17               		.cfi_startproc
  18               	.LVL0:
  19               	/* prologue: function */
  20               	/* frame size = 0 */
  21               	/* stack size = 0 */
  22               	.L__stack_usage = 0
  23               	.LBB2:
   9:../RadioHead/RHDatagram.cpp ****     :
  10:../RadioHead/RHDatagram.cpp ****     _driver(driver),
  11:../RadioHead/RHDatagram.cpp ****     _thisAddress(thisAddress)
  24               		.loc 1 11 0
  25 0000 FC01      		movw r30,r24
  26 0002 7183      		std Z+1,r23
  27 0004 6083      		st Z,r22
  28 0006 4283      		std Z+2,r20
  29 0008 0895      		ret
  30               	.LBE2:
  31               		.cfi_endproc
  32               	.LFE56:
  34               	.global	_ZN10RHDatagramC1ER15RHGenericDriverh
  35               		.set	_ZN10RHDatagramC1ER15RHGenericDriverh,_ZN10RHDatagramC2ER15RHGenericDriverh
  36               		.section	.text._ZN10RHDatagram9availableEv,"ax",@progbits
  37               	.global	_ZN10RHDatagram9availableEv
  39               	_ZN10RHDatagram9availableEv:
  40               	.LFB62:
  12:../RadioHead/RHDatagram.cpp **** {
  13:../RadioHead/RHDatagram.cpp **** }
  14:../RadioHead/RHDatagram.cpp **** 
  15:../RadioHead/RHDatagram.cpp **** ////////////////////////////////////////////////////////////////////
  16:../RadioHead/RHDatagram.cpp **** // Public methods
  17:../RadioHead/RHDatagram.cpp **** bool RHDatagram::init()
  18:../RadioHead/RHDatagram.cpp **** {
  19:../RadioHead/RHDatagram.cpp ****     bool ret = _driver.init();
  20:../RadioHead/RHDatagram.cpp ****     if (ret)
  21:../RadioHead/RHDatagram.cpp **** 	setThisAddress(_thisAddress);
  22:../RadioHead/RHDatagram.cpp ****     return ret;
  23:../RadioHead/RHDatagram.cpp **** }
  24:../RadioHead/RHDatagram.cpp **** 
  25:../RadioHead/RHDatagram.cpp **** void RHDatagram::setThisAddress(uint8_t thisAddress)
  26:../RadioHead/RHDatagram.cpp **** {
  27:../RadioHead/RHDatagram.cpp ****     _driver.setThisAddress(thisAddress);
  28:../RadioHead/RHDatagram.cpp ****     // Use this address in the transmitted FROM header
  29:../RadioHead/RHDatagram.cpp ****     setHeaderFrom(thisAddress);
  30:../RadioHead/RHDatagram.cpp ****     _thisAddress = thisAddress;
  31:../RadioHead/RHDatagram.cpp **** }
  32:../RadioHead/RHDatagram.cpp **** 
  33:../RadioHead/RHDatagram.cpp **** bool RHDatagram::sendto(uint8_t* buf, uint8_t len, uint8_t address)
  34:../RadioHead/RHDatagram.cpp **** {
  35:../RadioHead/RHDatagram.cpp ****     setHeaderTo(address);
  36:../RadioHead/RHDatagram.cpp ****     return _driver.send(buf, len);
  37:../RadioHead/RHDatagram.cpp **** }
  38:../RadioHead/RHDatagram.cpp **** 
  39:../RadioHead/RHDatagram.cpp **** bool RHDatagram::recvfrom(uint8_t* buf, uint8_t* len, uint8_t* from, uint8_t* to, uint8_t* id, uint
  40:../RadioHead/RHDatagram.cpp **** {
  41:../RadioHead/RHDatagram.cpp ****     if (_driver.recv(buf, len))
  42:../RadioHead/RHDatagram.cpp ****     {
  43:../RadioHead/RHDatagram.cpp **** 	if (from)  *from =  headerFrom();
  44:../RadioHead/RHDatagram.cpp **** 	if (to)    *to =    headerTo();
  45:../RadioHead/RHDatagram.cpp **** 	if (id)    *id =    headerId();
  46:../RadioHead/RHDatagram.cpp **** 	if (flags) *flags = headerFlags();
  47:../RadioHead/RHDatagram.cpp **** 	return true;
  48:../RadioHead/RHDatagram.cpp ****     }
  49:../RadioHead/RHDatagram.cpp ****     return false;
  50:../RadioHead/RHDatagram.cpp **** }
  51:../RadioHead/RHDatagram.cpp **** 
  52:../RadioHead/RHDatagram.cpp **** bool RHDatagram::available()
  53:../RadioHead/RHDatagram.cpp **** {
  41               		.loc 1 53 0
  42               		.cfi_startproc
  43               	.LVL1:
  44               	/* prologue: function */
  45               	/* frame size = 0 */
  46               	/* stack size = 0 */
  47               	.L__stack_usage = 0
  54:../RadioHead/RHDatagram.cpp ****     return _driver.available();
  48               		.loc 1 54 0
  49 0000 DC01      		movw r26,r24
  50 0002 8D91      		ld r24,X+
  51 0004 9C91      		ld r25,X
  52               	.LVL2:
  53 0006 DC01      		movw r26,r24
  54               	.LVL3:
  55 0008 ED91      		ld r30,X+
  56 000a FC91      		ld r31,X
  57 000c 0280      		ldd __tmp_reg__,Z+2
  58 000e F381      		ldd r31,Z+3
  59 0010 E02D      		mov r30,__tmp_reg__
  60 0012 0994      		ijmp
  61               	.LVL4:
  62               		.cfi_endproc
  63               	.LFE62:
  65               		.section	.text._ZN10RHDatagram13waitAvailableEv,"ax",@progbits
  66               	.global	_ZN10RHDatagram13waitAvailableEv
  68               	_ZN10RHDatagram13waitAvailableEv:
  69               	.LFB63:
  55:../RadioHead/RHDatagram.cpp **** }
  56:../RadioHead/RHDatagram.cpp **** 
  57:../RadioHead/RHDatagram.cpp **** void RHDatagram::waitAvailable()
  58:../RadioHead/RHDatagram.cpp **** {
  70               		.loc 1 58 0
  71               		.cfi_startproc
  72               	.LVL5:
  73               	/* prologue: function */
  74               	/* frame size = 0 */
  75               	/* stack size = 0 */
  76               	.L__stack_usage = 0
  59:../RadioHead/RHDatagram.cpp ****     _driver.waitAvailable();
  77               		.loc 1 59 0
  78 0000 DC01      		movw r26,r24
  79 0002 8D91      		ld r24,X+
  80 0004 9C91      		ld r25,X
  81               	.LVL6:
  82 0006 DC01      		movw r26,r24
  83               	.LVL7:
  84 0008 ED91      		ld r30,X+
  85 000a FC91      		ld r31,X
  86 000c 0284      		ldd __tmp_reg__,Z+10
  87 000e F385      		ldd r31,Z+11
  88 0010 E02D      		mov r30,__tmp_reg__
  89 0012 0994      		ijmp
  90               	.LVL8:
  91               		.cfi_endproc
  92               	.LFE63:
  94               		.section	.text._ZN10RHDatagram14waitPacketSentEv,"ax",@progbits
  95               	.global	_ZN10RHDatagram14waitPacketSentEv
  97               	_ZN10RHDatagram14waitPacketSentEv:
  98               	.LFB64:
  60:../RadioHead/RHDatagram.cpp **** }
  61:../RadioHead/RHDatagram.cpp **** 
  62:../RadioHead/RHDatagram.cpp **** bool RHDatagram::waitPacketSent()
  63:../RadioHead/RHDatagram.cpp **** {
  99               		.loc 1 63 0
 100               		.cfi_startproc
 101               	.LVL9:
 102               	/* prologue: function */
 103               	/* frame size = 0 */
 104               	/* stack size = 0 */
 105               	.L__stack_usage = 0
  64:../RadioHead/RHDatagram.cpp ****     return _driver.waitPacketSent();
 106               		.loc 1 64 0
 107 0000 DC01      		movw r26,r24
 108 0002 8D91      		ld r24,X+
 109 0004 9C91      		ld r25,X
 110               	.LVL10:
 111 0006 DC01      		movw r26,r24
 112               	.LVL11:
 113 0008 ED91      		ld r30,X+
 114 000a FC91      		ld r31,X
 115 000c 0484      		ldd __tmp_reg__,Z+12
 116 000e F585      		ldd r31,Z+13
 117 0010 E02D      		mov r30,__tmp_reg__
 118 0012 0994      		ijmp
 119               	.LVL12:
 120               		.cfi_endproc
 121               	.LFE64:
 123               		.section	.text._ZN10RHDatagram14waitPacketSentEj,"ax",@progbits
 124               	.global	_ZN10RHDatagram14waitPacketSentEj
 126               	_ZN10RHDatagram14waitPacketSentEj:
 127               	.LFB65:
  65:../RadioHead/RHDatagram.cpp **** }
  66:../RadioHead/RHDatagram.cpp **** 
  67:../RadioHead/RHDatagram.cpp **** bool RHDatagram::waitPacketSent(uint16_t timeout)
  68:../RadioHead/RHDatagram.cpp **** {
 128               		.loc 1 68 0
 129               		.cfi_startproc
 130               	.LVL13:
 131               	/* prologue: function */
 132               	/* frame size = 0 */
 133               	/* stack size = 0 */
 134               	.L__stack_usage = 0
  69:../RadioHead/RHDatagram.cpp ****     return _driver.waitPacketSent(timeout);
 135               		.loc 1 69 0
 136 0000 DC01      		movw r26,r24
 137 0002 8D91      		ld r24,X+
 138 0004 9C91      		ld r25,X
 139               	.LVL14:
 140 0006 DC01      		movw r26,r24
 141               	.LVL15:
 142 0008 ED91      		ld r30,X+
 143 000a FC91      		ld r31,X
 144 000c 0684      		ldd __tmp_reg__,Z+14
 145 000e F785      		ldd r31,Z+15
 146 0010 E02D      		mov r30,__tmp_reg__
 147 0012 0994      		ijmp
 148               	.LVL16:
 149               		.cfi_endproc
 150               	.LFE65:
 152               		.section	.text._ZN10RHDatagram20waitAvailableTimeoutEj,"ax",@progbits
 153               	.global	_ZN10RHDatagram20waitAvailableTimeoutEj
 155               	_ZN10RHDatagram20waitAvailableTimeoutEj:
 156               	.LFB66:
  70:../RadioHead/RHDatagram.cpp **** }
  71:../RadioHead/RHDatagram.cpp **** 
  72:../RadioHead/RHDatagram.cpp **** bool RHDatagram::waitAvailableTimeout(uint16_t timeout)
  73:../RadioHead/RHDatagram.cpp **** {
 157               		.loc 1 73 0
 158               		.cfi_startproc
 159               	.LVL17:
 160               	/* prologue: function */
 161               	/* frame size = 0 */
 162               	/* stack size = 0 */
 163               	.L__stack_usage = 0
  74:../RadioHead/RHDatagram.cpp ****     return _driver.waitAvailableTimeout(timeout);
 164               		.loc 1 74 0
 165 0000 DC01      		movw r26,r24
 166 0002 8D91      		ld r24,X+
 167 0004 9C91      		ld r25,X
 168               	.LVL18:
 169 0006 DC01      		movw r26,r24
 170               	.LVL19:
 171 0008 ED91      		ld r30,X+
 172 000a FC91      		ld r31,X
 173 000c 0088      		ldd __tmp_reg__,Z+16
 174 000e F189      		ldd r31,Z+17
 175 0010 E02D      		mov r30,__tmp_reg__
 176 0012 0994      		ijmp
 177               	.LVL20:
 178               		.cfi_endproc
 179               	.LFE66:
 181               		.section	.text._ZN10RHDatagram11thisAddressEv,"ax",@progbits
 182               	.global	_ZN10RHDatagram11thisAddressEv
 184               	_ZN10RHDatagram11thisAddressEv:
 185               	.LFB67:
  75:../RadioHead/RHDatagram.cpp **** }
  76:../RadioHead/RHDatagram.cpp **** 
  77:../RadioHead/RHDatagram.cpp **** uint8_t RHDatagram::thisAddress()
  78:../RadioHead/RHDatagram.cpp **** {
 186               		.loc 1 78 0
 187               		.cfi_startproc
 188               	.LVL21:
 189               	/* prologue: function */
 190               	/* frame size = 0 */
 191               	/* stack size = 0 */
 192               	.L__stack_usage = 0
  79:../RadioHead/RHDatagram.cpp ****     return _thisAddress;
  80:../RadioHead/RHDatagram.cpp **** }
 193               		.loc 1 80 0
 194 0000 FC01      		movw r30,r24
 195 0002 8281      		ldd r24,Z+2
 196               	.LVL22:
 197 0004 0895      		ret
 198               		.cfi_endproc
 199               	.LFE67:
 201               		.section	.text._ZN10RHDatagram11setHeaderToEh,"ax",@progbits
 202               	.global	_ZN10RHDatagram11setHeaderToEh
 204               	_ZN10RHDatagram11setHeaderToEh:
 205               	.LFB68:
  81:../RadioHead/RHDatagram.cpp **** 
  82:../RadioHead/RHDatagram.cpp **** void RHDatagram::setHeaderTo(uint8_t to)
  83:../RadioHead/RHDatagram.cpp **** {
 206               		.loc 1 83 0
 207               		.cfi_startproc
 208               	.LVL23:
 209               	/* prologue: function */
 210               	/* frame size = 0 */
 211               	/* stack size = 0 */
 212               	.L__stack_usage = 0
  84:../RadioHead/RHDatagram.cpp ****     _driver.setHeaderTo(to);
 213               		.loc 1 84 0
 214 0000 DC01      		movw r26,r24
 215 0002 8D91      		ld r24,X+
 216 0004 9C91      		ld r25,X
 217               	.LVL24:
 218 0006 DC01      		movw r26,r24
 219               	.LVL25:
 220 0008 ED91      		ld r30,X+
 221 000a FC91      		ld r31,X
 222 000c 008C      		ldd __tmp_reg__,Z+24
 223 000e F18D      		ldd r31,Z+25
 224 0010 E02D      		mov r30,__tmp_reg__
 225 0012 0994      		ijmp
 226               	.LVL26:
 227               		.cfi_endproc
 228               	.LFE68:
 230               		.section	.text._ZN10RHDatagram6sendtoEPhhh,"ax",@progbits
 231               	.global	_ZN10RHDatagram6sendtoEPhhh
 233               	_ZN10RHDatagram6sendtoEPhhh:
 234               	.LFB60:
  34:../RadioHead/RHDatagram.cpp ****     setHeaderTo(address);
 235               		.loc 1 34 0
 236               		.cfi_startproc
 237               	.LVL27:
 238 0000 EF92      		push r14
 239               	.LCFI0:
 240               		.cfi_def_cfa_offset 3
 241               		.cfi_offset 14, -2
 242 0002 FF92      		push r15
 243               	.LCFI1:
 244               		.cfi_def_cfa_offset 4
 245               		.cfi_offset 15, -3
 246 0004 0F93      		push r16
 247               	.LCFI2:
 248               		.cfi_def_cfa_offset 5
 249               		.cfi_offset 16, -4
 250 0006 1F93      		push r17
 251               	.LCFI3:
 252               		.cfi_def_cfa_offset 6
 253               		.cfi_offset 17, -5
 254 0008 CF93      		push r28
 255               	.LCFI4:
 256               		.cfi_def_cfa_offset 7
 257               		.cfi_offset 28, -6
 258 000a DF93      		push r29
 259               	.LCFI5:
 260               		.cfi_def_cfa_offset 8
 261               		.cfi_offset 29, -7
 262 000c 1F92      		push __zero_reg__
 263               	.LCFI6:
 264               		.cfi_def_cfa_offset 9
 265 000e CDB7      		in r28,__SP_L__
 266 0010 DEB7      		in r29,__SP_H__
 267               	.LCFI7:
 268               		.cfi_def_cfa_register 28
 269               	/* prologue: function */
 270               	/* frame size = 1 */
 271               	/* stack size = 7 */
 272               	.L__stack_usage = 7
 273 0012 7C01      		movw r14,r24
 274 0014 8B01      		movw r16,r22
  35:../RadioHead/RHDatagram.cpp ****     return _driver.send(buf, len);
 275               		.loc 1 35 0
 276 0016 622F      		mov r22,r18
 277               	.LVL28:
 278 0018 4983      		std Y+1,r20
 279 001a 0E94 0000 		call _ZN10RHDatagram11setHeaderToEh
 280               	.LVL29:
  36:../RadioHead/RHDatagram.cpp **** }
 281               		.loc 1 36 0
 282 001e D701      		movw r26,r14
 283 0020 8D91      		ld r24,X+
 284 0022 9C91      		ld r25,X
 285 0024 DC01      		movw r26,r24
 286 0026 ED91      		ld r30,X+
 287 0028 FC91      		ld r31,X
 288 002a 0680      		ldd __tmp_reg__,Z+6
 289 002c F781      		ldd r31,Z+7
 290 002e E02D      		mov r30,__tmp_reg__
 291 0030 4981      		ldd r20,Y+1
 292 0032 B801      		movw r22,r16
 293               	/* epilogue start */
  37:../RadioHead/RHDatagram.cpp **** 
 294               		.loc 1 37 0
 295 0034 0F90      		pop __tmp_reg__
 296 0036 DF91      		pop r29
 297 0038 CF91      		pop r28
 298 003a 1F91      		pop r17
 299 003c 0F91      		pop r16
 300               	.LVL30:
 301 003e FF90      		pop r15
 302 0040 EF90      		pop r14
 303               	.LVL31:
  36:../RadioHead/RHDatagram.cpp **** }
 304               		.loc 1 36 0
 305 0042 0994      		ijmp
 306               	.LVL32:
 307               		.cfi_endproc
 308               	.LFE60:
 310               		.section	.text._ZN10RHDatagram13setHeaderFromEh,"ax",@progbits
 311               	.global	_ZN10RHDatagram13setHeaderFromEh
 313               	_ZN10RHDatagram13setHeaderFromEh:
 314               	.LFB69:
  85:../RadioHead/RHDatagram.cpp **** }
  86:../RadioHead/RHDatagram.cpp **** 
  87:../RadioHead/RHDatagram.cpp **** void RHDatagram::setHeaderFrom(uint8_t from)
  88:../RadioHead/RHDatagram.cpp **** {
 315               		.loc 1 88 0
 316               		.cfi_startproc
 317               	.LVL33:
 318               	/* prologue: function */
 319               	/* frame size = 0 */
 320               	/* stack size = 0 */
 321               	.L__stack_usage = 0
  89:../RadioHead/RHDatagram.cpp ****     _driver.setHeaderFrom(from);
 322               		.loc 1 89 0
 323 0000 DC01      		movw r26,r24
 324 0002 8D91      		ld r24,X+
 325 0004 9C91      		ld r25,X
 326               	.LVL34:
 327 0006 DC01      		movw r26,r24
 328               	.LVL35:
 329 0008 ED91      		ld r30,X+
 330 000a FC91      		ld r31,X
 331 000c 028C      		ldd __tmp_reg__,Z+26
 332 000e F38D      		ldd r31,Z+27
 333 0010 E02D      		mov r30,__tmp_reg__
 334 0012 0994      		ijmp
 335               	.LVL36:
 336               		.cfi_endproc
 337               	.LFE69:
 339               		.section	.text._ZN10RHDatagram14setThisAddressEh,"ax",@progbits
 340               	.global	_ZN10RHDatagram14setThisAddressEh
 342               	_ZN10RHDatagram14setThisAddressEh:
 343               	.LFB59:
  26:../RadioHead/RHDatagram.cpp ****     _driver.setThisAddress(thisAddress);
 344               		.loc 1 26 0
 345               		.cfi_startproc
 346               	.LVL37:
 347 0000 1F93      		push r17
 348               	.LCFI8:
 349               		.cfi_def_cfa_offset 3
 350               		.cfi_offset 17, -2
 351 0002 CF93      		push r28
 352               	.LCFI9:
 353               		.cfi_def_cfa_offset 4
 354               		.cfi_offset 28, -3
 355 0004 DF93      		push r29
 356               	.LCFI10:
 357               		.cfi_def_cfa_offset 5
 358               		.cfi_offset 29, -4
 359               	/* prologue: function */
 360               	/* frame size = 0 */
 361               	/* stack size = 3 */
 362               	.L__stack_usage = 3
 363 0006 EC01      		movw r28,r24
 364 0008 162F      		mov r17,r22
  27:../RadioHead/RHDatagram.cpp ****     // Use this address in the transmitted FROM header
 365               		.loc 1 27 0
 366 000a 8881      		ld r24,Y
 367 000c 9981      		ldd r25,Y+1
 368               	.LVL38:
 369 000e DC01      		movw r26,r24
 370 0010 ED91      		ld r30,X+
 371 0012 FC91      		ld r31,X
 372 0014 0688      		ldd __tmp_reg__,Z+22
 373 0016 F789      		ldd r31,Z+23
 374 0018 E02D      		mov r30,__tmp_reg__
 375 001a 0995      		icall
 376               	.LVL39:
  29:../RadioHead/RHDatagram.cpp ****     _thisAddress = thisAddress;
 377               		.loc 1 29 0
 378 001c 612F      		mov r22,r17
 379 001e CE01      		movw r24,r28
 380 0020 0E94 0000 		call _ZN10RHDatagram13setHeaderFromEh
 381               	.LVL40:
  30:../RadioHead/RHDatagram.cpp **** }
 382               		.loc 1 30 0
 383 0024 1A83      		std Y+2,r17
 384               	/* epilogue start */
  31:../RadioHead/RHDatagram.cpp **** 
 385               		.loc 1 31 0
 386 0026 DF91      		pop r29
 387 0028 CF91      		pop r28
 388               	.LVL41:
 389 002a 1F91      		pop r17
 390               	.LVL42:
 391 002c 0895      		ret
 392               		.cfi_endproc
 393               	.LFE59:
 395               		.section	.text._ZN10RHDatagram4initEv,"ax",@progbits
 396               	.global	_ZN10RHDatagram4initEv
 398               	_ZN10RHDatagram4initEv:
 399               	.LFB58:
  18:../RadioHead/RHDatagram.cpp ****     bool ret = _driver.init();
 400               		.loc 1 18 0
 401               		.cfi_startproc
 402               	.LVL43:
 403 0000 1F93      		push r17
 404               	.LCFI11:
 405               		.cfi_def_cfa_offset 3
 406               		.cfi_offset 17, -2
 407 0002 CF93      		push r28
 408               	.LCFI12:
 409               		.cfi_def_cfa_offset 4
 410               		.cfi_offset 28, -3
 411 0004 DF93      		push r29
 412               	.LCFI13:
 413               		.cfi_def_cfa_offset 5
 414               		.cfi_offset 29, -4
 415               	/* prologue: function */
 416               	/* frame size = 0 */
 417               	/* stack size = 3 */
 418               	.L__stack_usage = 3
 419 0006 EC01      		movw r28,r24
 420               	.LBB3:
  19:../RadioHead/RHDatagram.cpp ****     if (ret)
 421               		.loc 1 19 0
 422 0008 8881      		ld r24,Y
 423 000a 9981      		ldd r25,Y+1
 424               	.LVL44:
 425 000c DC01      		movw r26,r24
 426 000e ED91      		ld r30,X+
 427 0010 FC91      		ld r31,X
 428 0012 0190      		ld __tmp_reg__,Z+
 429 0014 F081      		ld r31,Z
 430 0016 E02D      		mov r30,__tmp_reg__
 431 0018 0995      		icall
 432               	.LVL45:
 433 001a 182F      		mov r17,r24
 434               	.LVL46:
  20:../RadioHead/RHDatagram.cpp **** 	setThisAddress(_thisAddress);
 435               		.loc 1 20 0
 436 001c 8823      		tst r24
 437 001e 01F0      		breq .L13
  21:../RadioHead/RHDatagram.cpp ****     return ret;
 438               		.loc 1 21 0
 439 0020 6A81      		ldd r22,Y+2
 440 0022 CE01      		movw r24,r28
 441 0024 0E94 0000 		call _ZN10RHDatagram14setThisAddressEh
 442               	.LVL47:
 443               	.L13:
 444               	.LBE3:
  23:../RadioHead/RHDatagram.cpp **** 
 445               		.loc 1 23 0
 446 0028 812F      		mov r24,r17
 447               	/* epilogue start */
 448 002a DF91      		pop r29
 449 002c CF91      		pop r28
 450               	.LVL48:
 451 002e 1F91      		pop r17
 452               	.LVL49:
 453 0030 0895      		ret
 454               		.cfi_endproc
 455               	.LFE58:
 457               		.section	.text._ZN10RHDatagram11setHeaderIdEh,"ax",@progbits
 458               	.global	_ZN10RHDatagram11setHeaderIdEh
 460               	_ZN10RHDatagram11setHeaderIdEh:
 461               	.LFB70:
  90:../RadioHead/RHDatagram.cpp **** }
  91:../RadioHead/RHDatagram.cpp **** 
  92:../RadioHead/RHDatagram.cpp **** void RHDatagram::setHeaderId(uint8_t id)
  93:../RadioHead/RHDatagram.cpp **** {
 462               		.loc 1 93 0
 463               		.cfi_startproc
 464               	.LVL50:
 465               	/* prologue: function */
 466               	/* frame size = 0 */
 467               	/* stack size = 0 */
 468               	.L__stack_usage = 0
  94:../RadioHead/RHDatagram.cpp ****     _driver.setHeaderId(id);
 469               		.loc 1 94 0
 470 0000 DC01      		movw r26,r24
 471 0002 8D91      		ld r24,X+
 472 0004 9C91      		ld r25,X
 473               	.LVL51:
 474 0006 DC01      		movw r26,r24
 475               	.LVL52:
 476 0008 ED91      		ld r30,X+
 477 000a FC91      		ld r31,X
 478 000c 048C      		ldd __tmp_reg__,Z+28
 479 000e F58D      		ldd r31,Z+29
 480 0010 E02D      		mov r30,__tmp_reg__
 481 0012 0994      		ijmp
 482               	.LVL53:
 483               		.cfi_endproc
 484               	.LFE70:
 486               		.section	.text._ZN10RHDatagram14setHeaderFlagsEhh,"ax",@progbits
 487               	.global	_ZN10RHDatagram14setHeaderFlagsEhh
 489               	_ZN10RHDatagram14setHeaderFlagsEhh:
 490               	.LFB71:
  95:../RadioHead/RHDatagram.cpp **** }
  96:../RadioHead/RHDatagram.cpp **** 
  97:../RadioHead/RHDatagram.cpp **** void RHDatagram::setHeaderFlags(uint8_t set, uint8_t clear)
  98:../RadioHead/RHDatagram.cpp **** {
 491               		.loc 1 98 0
 492               		.cfi_startproc
 493               	.LVL54:
 494               	/* prologue: function */
 495               	/* frame size = 0 */
 496               	/* stack size = 0 */
 497               	.L__stack_usage = 0
  99:../RadioHead/RHDatagram.cpp ****     _driver.setHeaderFlags(set, clear);
 498               		.loc 1 99 0
 499 0000 DC01      		movw r26,r24
 500 0002 8D91      		ld r24,X+
 501 0004 9C91      		ld r25,X
 502               	.LVL55:
 503 0006 DC01      		movw r26,r24
 504               	.LVL56:
 505 0008 ED91      		ld r30,X+
 506 000a FC91      		ld r31,X
 507 000c 068C      		ldd __tmp_reg__,Z+30
 508 000e F78D      		ldd r31,Z+31
 509 0010 E02D      		mov r30,__tmp_reg__
 510 0012 0994      		ijmp
 511               	.LVL57:
 512               		.cfi_endproc
 513               	.LFE71:
 515               		.section	.text._ZN10RHDatagram8headerToEv,"ax",@progbits
 516               	.global	_ZN10RHDatagram8headerToEv
 518               	_ZN10RHDatagram8headerToEv:
 519               	.LFB72:
 100:../RadioHead/RHDatagram.cpp **** }
 101:../RadioHead/RHDatagram.cpp **** 
 102:../RadioHead/RHDatagram.cpp **** uint8_t RHDatagram::headerTo()
 103:../RadioHead/RHDatagram.cpp **** {
 520               		.loc 1 103 0
 521               		.cfi_startproc
 522               	.LVL58:
 523               	/* prologue: function */
 524               	/* frame size = 0 */
 525               	/* stack size = 0 */
 526               	.L__stack_usage = 0
 104:../RadioHead/RHDatagram.cpp ****     return _driver.headerTo();
 527               		.loc 1 104 0
 528 0000 DC01      		movw r26,r24
 529 0002 8D91      		ld r24,X+
 530 0004 9C91      		ld r25,X
 531               	.LVL59:
 532 0006 DC01      		movw r26,r24
 533               	.LVL60:
 534 0008 ED91      		ld r30,X+
 535 000a FC91      		ld r31,X
 536 000c 02A0      		ldd __tmp_reg__,Z+34
 537 000e F3A1      		ldd r31,Z+35
 538 0010 E02D      		mov r30,__tmp_reg__
 539 0012 0994      		ijmp
 540               	.LVL61:
 541               		.cfi_endproc
 542               	.LFE72:
 544               		.section	.text._ZN10RHDatagram10headerFromEv,"ax",@progbits
 545               	.global	_ZN10RHDatagram10headerFromEv
 547               	_ZN10RHDatagram10headerFromEv:
 548               	.LFB73:
 105:../RadioHead/RHDatagram.cpp **** }
 106:../RadioHead/RHDatagram.cpp **** 
 107:../RadioHead/RHDatagram.cpp **** uint8_t RHDatagram::headerFrom()
 108:../RadioHead/RHDatagram.cpp **** {
 549               		.loc 1 108 0
 550               		.cfi_startproc
 551               	.LVL62:
 552               	/* prologue: function */
 553               	/* frame size = 0 */
 554               	/* stack size = 0 */
 555               	.L__stack_usage = 0
 109:../RadioHead/RHDatagram.cpp ****     return _driver.headerFrom();
 556               		.loc 1 109 0
 557 0000 DC01      		movw r26,r24
 558 0002 8D91      		ld r24,X+
 559 0004 9C91      		ld r25,X
 560               	.LVL63:
 561 0006 DC01      		movw r26,r24
 562               	.LVL64:
 563 0008 ED91      		ld r30,X+
 564 000a FC91      		ld r31,X
 565 000c 04A0      		ldd __tmp_reg__,Z+36
 566 000e F5A1      		ldd r31,Z+37
 567 0010 E02D      		mov r30,__tmp_reg__
 568 0012 0994      		ijmp
 569               	.LVL65:
 570               		.cfi_endproc
 571               	.LFE73:
 573               		.section	.text._ZN10RHDatagram8headerIdEv,"ax",@progbits
 574               	.global	_ZN10RHDatagram8headerIdEv
 576               	_ZN10RHDatagram8headerIdEv:
 577               	.LFB74:
 110:../RadioHead/RHDatagram.cpp **** }
 111:../RadioHead/RHDatagram.cpp **** 
 112:../RadioHead/RHDatagram.cpp **** uint8_t RHDatagram::headerId()
 113:../RadioHead/RHDatagram.cpp **** {
 578               		.loc 1 113 0
 579               		.cfi_startproc
 580               	.LVL66:
 581               	/* prologue: function */
 582               	/* frame size = 0 */
 583               	/* stack size = 0 */
 584               	.L__stack_usage = 0
 114:../RadioHead/RHDatagram.cpp ****     return _driver.headerId();
 585               		.loc 1 114 0
 586 0000 DC01      		movw r26,r24
 587 0002 8D91      		ld r24,X+
 588 0004 9C91      		ld r25,X
 589               	.LVL67:
 590 0006 DC01      		movw r26,r24
 591               	.LVL68:
 592 0008 ED91      		ld r30,X+
 593 000a FC91      		ld r31,X
 594 000c 06A0      		ldd __tmp_reg__,Z+38
 595 000e F7A1      		ldd r31,Z+39
 596 0010 E02D      		mov r30,__tmp_reg__
 597 0012 0994      		ijmp
 598               	.LVL69:
 599               		.cfi_endproc
 600               	.LFE74:
 602               		.section	.text._ZN10RHDatagram11headerFlagsEv,"ax",@progbits
 603               	.global	_ZN10RHDatagram11headerFlagsEv
 605               	_ZN10RHDatagram11headerFlagsEv:
 606               	.LFB75:
 115:../RadioHead/RHDatagram.cpp **** }
 116:../RadioHead/RHDatagram.cpp **** 
 117:../RadioHead/RHDatagram.cpp **** uint8_t RHDatagram::headerFlags()
 118:../RadioHead/RHDatagram.cpp **** {
 607               		.loc 1 118 0
 608               		.cfi_startproc
 609               	.LVL70:
 610               	/* prologue: function */
 611               	/* frame size = 0 */
 612               	/* stack size = 0 */
 613               	.L__stack_usage = 0
 119:../RadioHead/RHDatagram.cpp ****     return _driver.headerFlags();
 614               		.loc 1 119 0
 615 0000 DC01      		movw r26,r24
 616 0002 8D91      		ld r24,X+
 617 0004 9C91      		ld r25,X
 618               	.LVL71:
 619 0006 DC01      		movw r26,r24
 620               	.LVL72:
 621 0008 ED91      		ld r30,X+
 622 000a FC91      		ld r31,X
 623 000c 00A4      		ldd __tmp_reg__,Z+40
 624 000e F1A5      		ldd r31,Z+41
 625 0010 E02D      		mov r30,__tmp_reg__
 626 0012 0994      		ijmp
 627               	.LVL73:
 628               		.cfi_endproc
 629               	.LFE75:
 631               		.section	.text._ZN10RHDatagram8recvfromEPhS0_S0_S0_S0_S0_,"ax",@progbits
 632               	.global	_ZN10RHDatagram8recvfromEPhS0_S0_S0_S0_S0_
 634               	_ZN10RHDatagram8recvfromEPhS0_S0_S0_S0_S0_:
 635               	.LFB61:
  40:../RadioHead/RHDatagram.cpp ****     if (_driver.recv(buf, len))
 636               		.loc 1 40 0
 637               		.cfi_startproc
 638               	.LVL74:
 639 0000 8F92      		push r8
 640               	.LCFI14:
 641               		.cfi_def_cfa_offset 3
 642               		.cfi_offset 8, -2
 643 0002 9F92      		push r9
 644               	.LCFI15:
 645               		.cfi_def_cfa_offset 4
 646               		.cfi_offset 9, -3
 647 0004 AF92      		push r10
 648               	.LCFI16:
 649               		.cfi_def_cfa_offset 5
 650               		.cfi_offset 10, -4
 651 0006 BF92      		push r11
 652               	.LCFI17:
 653               		.cfi_def_cfa_offset 6
 654               		.cfi_offset 11, -5
 655 0008 CF92      		push r12
 656               	.LCFI18:
 657               		.cfi_def_cfa_offset 7
 658               		.cfi_offset 12, -6
 659 000a DF92      		push r13
 660               	.LCFI19:
 661               		.cfi_def_cfa_offset 8
 662               		.cfi_offset 13, -7
 663 000c EF92      		push r14
 664               	.LCFI20:
 665               		.cfi_def_cfa_offset 9
 666               		.cfi_offset 14, -8
 667 000e FF92      		push r15
 668               	.LCFI21:
 669               		.cfi_def_cfa_offset 10
 670               		.cfi_offset 15, -9
 671 0010 0F93      		push r16
 672               	.LCFI22:
 673               		.cfi_def_cfa_offset 11
 674               		.cfi_offset 16, -10
 675 0012 1F93      		push r17
 676               	.LCFI23:
 677               		.cfi_def_cfa_offset 12
 678               		.cfi_offset 17, -11
 679 0014 CF93      		push r28
 680               	.LCFI24:
 681               		.cfi_def_cfa_offset 13
 682               		.cfi_offset 28, -12
 683 0016 DF93      		push r29
 684               	.LCFI25:
 685               		.cfi_def_cfa_offset 14
 686               		.cfi_offset 29, -13
 687               	/* prologue: function */
 688               	/* frame size = 0 */
 689               	/* stack size = 12 */
 690               	.L__stack_usage = 12
 691 0018 EC01      		movw r28,r24
 692 001a 4901      		movw r8,r18
 693 001c 5801      		movw r10,r16
  41:../RadioHead/RHDatagram.cpp ****     {
 694               		.loc 1 41 0
 695 001e 8881      		ld r24,Y
 696 0020 9981      		ldd r25,Y+1
 697               	.LVL75:
 698 0022 DC01      		movw r26,r24
 699 0024 ED91      		ld r30,X+
 700 0026 FC91      		ld r31,X
 701 0028 0480      		ldd __tmp_reg__,Z+4
 702 002a F581      		ldd r31,Z+5
 703 002c E02D      		mov r30,__tmp_reg__
 704 002e 0995      		icall
 705               	.LVL76:
 706 0030 182F      		mov r17,r24
 707 0032 8823      		tst r24
 708 0034 01F0      		breq .L25
  43:../RadioHead/RHDatagram.cpp **** 	if (to)    *to =    headerTo();
 709               		.loc 1 43 0
 710 0036 8114      		cp r8,__zero_reg__
 711 0038 9104      		cpc r9,__zero_reg__
 712 003a 01F0      		breq .L26
  43:../RadioHead/RHDatagram.cpp **** 	if (to)    *to =    headerTo();
 713               		.loc 1 43 0 is_stmt 0 discriminator 1
 714 003c CE01      		movw r24,r28
 715 003e 0E94 0000 		call _ZN10RHDatagram10headerFromEv
 716               	.LVL77:
 717 0042 F401      		movw r30,r8
 718 0044 8083      		st Z,r24
 719               	.L26:
  44:../RadioHead/RHDatagram.cpp **** 	if (id)    *id =    headerId();
 720               		.loc 1 44 0 is_stmt 1
 721 0046 A114      		cp r10,__zero_reg__
 722 0048 B104      		cpc r11,__zero_reg__
 723 004a 01F0      		breq .L27
  44:../RadioHead/RHDatagram.cpp **** 	if (id)    *id =    headerId();
 724               		.loc 1 44 0 is_stmt 0 discriminator 1
 725 004c CE01      		movw r24,r28
 726 004e 0E94 0000 		call _ZN10RHDatagram8headerToEv
 727               	.LVL78:
 728 0052 D501      		movw r26,r10
 729 0054 8C93      		st X,r24
 730               	.LVL79:
 731               	.L27:
  45:../RadioHead/RHDatagram.cpp **** 	if (flags) *flags = headerFlags();
 732               		.loc 1 45 0 is_stmt 1
 733 0056 E114      		cp r14,__zero_reg__
 734 0058 F104      		cpc r15,__zero_reg__
 735 005a 01F0      		breq .L28
  45:../RadioHead/RHDatagram.cpp **** 	if (flags) *flags = headerFlags();
 736               		.loc 1 45 0 is_stmt 0 discriminator 1
 737 005c CE01      		movw r24,r28
 738 005e 0E94 0000 		call _ZN10RHDatagram8headerIdEv
 739               	.LVL80:
 740 0062 F701      		movw r30,r14
 741 0064 8083      		st Z,r24
 742               	.L28:
  46:../RadioHead/RHDatagram.cpp **** 	return true;
 743               		.loc 1 46 0 is_stmt 1
 744 0066 C114      		cp r12,__zero_reg__
 745 0068 D104      		cpc r13,__zero_reg__
 746 006a 01F0      		breq .L25
  46:../RadioHead/RHDatagram.cpp **** 	return true;
 747               		.loc 1 46 0 is_stmt 0 discriminator 1
 748 006c CE01      		movw r24,r28
 749 006e 0E94 0000 		call _ZN10RHDatagram11headerFlagsEv
 750               	.LVL81:
 751 0072 D601      		movw r26,r12
 752 0074 8C93      		st X,r24
 753               	.L25:
  50:../RadioHead/RHDatagram.cpp **** 
 754               		.loc 1 50 0 is_stmt 1
 755 0076 812F      		mov r24,r17
 756               	/* epilogue start */
 757 0078 DF91      		pop r29
 758 007a CF91      		pop r28
 759               	.LVL82:
 760 007c 1F91      		pop r17
 761 007e 0F91      		pop r16
 762 0080 FF90      		pop r15
 763 0082 EF90      		pop r14
 764               	.LVL83:
 765 0084 DF90      		pop r13
 766 0086 CF90      		pop r12
 767               	.LVL84:
 768 0088 BF90      		pop r11
 769 008a AF90      		pop r10
 770               	.LVL85:
 771 008c 9F90      		pop r9
 772 008e 8F90      		pop r8
 773               	.LVL86:
 774 0090 0895      		ret
 775               		.cfi_endproc
 776               	.LFE61:
 778               		.text
 779               	.Letext0:
 780               		.file 2 "h:\\toolswindows\\avr8-gnu-toolchain\\avr\\include\\stdint.h"
 781               		.file 3 "../RadioHead/RHDatagram.h"